; Function Attrs: nounwind uwtable
define ptr @l_List_foldl___at_List_toSSet___spec__1___rarg(ptr noundef %0, ptr noundef %1, ptr noundef %2, ptr noundef %3) #0 {
  %5 = ptrtoint ptr %1 to i64
  %6 = and i64 %5, 1
  %.not42 = icmp eq i64 %6, 0
  %7 = ptrtoint ptr %0 to i64
  %8 = and i64 %7, 1
  %.not43 = icmp eq i64 %8, 0
  br label %9

9:                                                ; preds = %lean_inc.exit, %4
  %.018 = phi ptr [ %3, %4 ], [ %46, %lean_inc.exit ]
  %.0 = phi ptr [ %2, %4 ], [ %74, %lean_inc.exit ]
  %10 = ptrtoint ptr %.018 to i64
  %11 = and i64 %10, 1
  %.not.i28 = icmp eq i64 %11, 0
  br i1 %.not.i28, label %15, label %12

12:                                               ; preds = %9
  %13 = lshr i64 %10, 1
  %14 = trunc i64 %13 to i32
  br label %lean_obj_tag.exit

15:                                               ; preds = %9
  %16 = getelementptr i8, ptr %.018, i64 4
  %.val.i = load i32, ptr %16, align 4
  %17 = lshr i32 %.val.i, 24
  br label %lean_obj_tag.exit

lean_obj_tag.exit:                                ; preds = %12, %15
  %.0.i = phi i32 [ %14, %12 ], [ %17, %15 ]
  %18 = icmp eq i32 %.0.i, 0
  br i1 %18, label %19, label %34

19:                                               ; preds = %lean_obj_tag.exit
  br i1 %.not42, label %20, label %lean_dec.exit20

20:                                               ; preds = %19
  %21 = load i32, ptr %1, align 4, !tbaa !4
  %22 = icmp sgt i32 %21, 1
  br i1 %22, label %23, label %25, !prof !13

23:                                               ; preds = %20
  %24 = add nsw i32 %21, -1
  store i32 %24, ptr %1, align 4, !tbaa !4
  br label %lean_dec.exit20

25:                                               ; preds = %20
  %.not.i = icmp eq i32 %21, 0
  br i1 %.not.i, label %lean_dec.exit20, label %26

26:                                               ; preds = %25
  tail call void @lean_dec_ref_cold(ptr noundef nonnull %1) #3
  br label %lean_dec.exit20

lean_dec.exit20:                                  ; preds = %26, %25, %23, %19
  br i1 %.not43, label %27, label %lean_dec.exit19

27:                                               ; preds = %lean_dec.exit20
  %28 = load i32, ptr %0, align 4, !tbaa !4
  %29 = icmp sgt i32 %28, 1
  br i1 %29, label %30, label %32, !prof !13

30:                                               ; preds = %27
  %31 = add nsw i32 %28, -1
  store i32 %31, ptr %0, align 4, !tbaa !4
  br label %lean_dec.exit19

32:                                               ; preds = %27
  %.not.i24 = icmp eq i32 %28, 0
  br i1 %.not.i24, label %lean_dec.exit19, label %33

33:                                               ; preds = %32
  tail call void @lean_dec_ref_cold(ptr noundef nonnull %0) #3
  br label %lean_dec.exit19

lean_dec.exit19:                                  ; preds = %33, %32, %30, %lean_dec.exit20
  ret ptr %.0

34:                                               ; preds = %lean_obj_tag.exit
  %35 = getelementptr inbounds nuw i8, ptr %.018, i64 8
  %36 = load ptr, ptr %35, align 8, !tbaa !9
  %37 = ptrtoint ptr %36 to i64
  %38 = and i64 %37, 1
  %.not = icmp eq i64 %38, 0
  br i1 %.not, label %39, label %lean_inc.exit23

39:                                               ; preds = %34
  %.val.i29 = load i32, ptr %36, align 4, !tbaa !4
  %40 = icmp sgt i32 %.val.i29, 0
  br i1 %40, label %41, label %43, !prof !13

41:                                               ; preds = %39
  %42 = add nuw i32 %.val.i29, 1
  store i32 %42, ptr %36, align 4, !tbaa !4
  br label %lean_inc.exit23

43:                                               ; preds = %39
  %.not.i30 = icmp eq i32 %.val.i29, 0
  br i1 %.not.i30, label %lean_inc.exit23, label %44

44:                                               ; preds = %43
  tail call void @lean_inc_ref_cold(ptr noundef nonnull %36) #3
  br label %lean_inc.exit23

lean_inc.exit23:                                  ; preds = %44, %43, %41, %34
  %45 = getelementptr inbounds nuw i8, ptr %.018, i64 16
  %46 = load ptr, ptr %45, align 8, !tbaa !9
  %47 = ptrtoint ptr %46 to i64
  %48 = and i64 %47, 1
  %.not40 = icmp eq i64 %48, 0
  br i1 %.not40, label %49, label %lean_inc.exit22

49:                                               ; preds = %lean_inc.exit23
  %.val.i31 = load i32, ptr %46, align 4, !tbaa !4
  %50 = icmp sgt i32 %.val.i31, 0
  br i1 %50, label %51, label %53, !prof !13

51:                                               ; preds = %49
  %52 = add nuw i32 %.val.i31, 1
  store i32 %52, ptr %46, align 4, !tbaa !4
  br label %lean_inc.exit22

53:                                               ; preds = %49
  %.not.i32 = icmp eq i32 %.val.i31, 0
  br i1 %.not.i32, label %lean_inc.exit22, label %54

54:                                               ; preds = %53
  tail call void @lean_inc_ref_cold(ptr noundef nonnull %46) #3
  br label %lean_inc.exit22

lean_inc.exit22:                                  ; preds = %54, %53, %51, %lean_inc.exit23
  br i1 %.not.i28, label %55, label %lean_dec.exit

55:                                               ; preds = %lean_inc.exit22
  %56 = load i32, ptr %.018, align 4, !tbaa !4
  %57 = icmp sgt i32 %56, 1
  br i1 %57, label %58, label %60, !prof !13

58:                                               ; preds = %55
  %59 = add nsw i32 %56, -1
  store i32 %59, ptr %.018, align 4, !tbaa !4
  br label %lean_dec.exit

60:                                               ; preds = %55
  %.not.i26 = icmp eq i32 %56, 0
  br i1 %.not.i26, label %lean_dec.exit, label %61

61:                                               ; preds = %60
  tail call void @lean_dec_ref_cold(ptr noundef nonnull %.018) #3
  br label %lean_dec.exit

lean_dec.exit:                                    ; preds = %61, %60, %58, %lean_inc.exit22
  br i1 %.not42, label %62, label %lean_inc.exit21

62:                                               ; preds = %lean_dec.exit
  %.val.i34 = load i32, ptr %1, align 4, !tbaa !4
  %63 = icmp sgt i32 %.val.i34, 0
  br i1 %63, label %64, label %66, !prof !13

64:                                               ; preds = %62
  %65 = add nuw i32 %.val.i34, 1
  store i32 %65, ptr %1, align 4, !tbaa !4
  br label %lean_inc.exit21

66:                                               ; preds = %62
  %.not.i35 = icmp eq i32 %.val.i34, 0
  br i1 %.not.i35, label %lean_inc.exit21, label %67

67:                                               ; preds = %66
  tail call void @lean_inc_ref_cold(ptr noundef nonnull %1) #3
  br label %lean_inc.exit21

lean_inc.exit21:                                  ; preds = %67, %66, %64, %lean_dec.exit
  br i1 %.not43, label %68, label %lean_inc.exit

68:                                               ; preds = %lean_inc.exit21
  %.val.i37 = load i32, ptr %0, align 4, !tbaa !4
  %69 = icmp sgt i32 %.val.i37, 0
  br i1 %69, label %70, label %72, !prof !13

70:                                               ; preds = %68
  %71 = add nuw i32 %.val.i37, 1
  store i32 %71, ptr %0, align 4, !tbaa !4
  br label %lean_inc.exit

72:                                               ; preds = %68
  %.not.i38 = icmp eq i32 %.val.i37, 0
  br i1 %.not.i38, label %lean_inc.exit, label %73

73:                                               ; preds = %72
  tail call void @lean_inc_ref_cold(ptr noundef nonnull %0) #3
  br label %lean_inc.exit

lean_inc.exit:                                    ; preds = %73, %72, %70, %lean_inc.exit21
  %74 = tail call ptr @l_Lean_SMap_insert___rarg(ptr noundef %0, ptr noundef %1, ptr noundef %.0, ptr noundef %36, ptr noundef nonnull inttoptr (i64 1 to ptr)) #3
  br label %9
}